target datalayout = "e-m:e-p270:32:32-p271:32:32-p272:64:64-i64:64-i128:128-f80:128-n8:16:32:64-S128"
target triple = "x86_64-pc-linux-gnu"

%struct.decode_as_s = type { ptr, ptr, i32, i32, ptr, ptr, ptr, ptr, ptr, ptr, ptr }

@dissector_pw_ach = internal global ptr null, align 8
@.str.8 = private unnamed_addr constant [11 x i8] c"mpls.label\00", align 1
@.str.21 = private unnamed_addr constant [19 x i8] c"pwach.channel_type\00", align 1
@.str.22 = private unnamed_addr constant [27 x i8] c"PW Associated Channel Type\00", align 1
@.str.24 = private unnamed_addr constant [10 x i8] c"mcc.proto\00", align 1
@proto_register_mpls.ett = internal global [4 x ptr] [ptr @ett_mpls, ptr @ett_mpls_pw_ach, ptr @ett_mpls_pw_ach_mcc, ptr @ett_mpls_pw_mcw], align 16
@proto_register_mpls.mpls_da = internal global %struct.decode_as_s { ptr @.str.42, ptr @.str.8, i32 1, i32 0, ptr @proto_register_mpls.mpls_da_values, ptr null, ptr null, ptr @decode_as_default_populate_list, ptr @decode_as_default_reset, ptr @decode_as_default_change, ptr null }, align 8
@.str.42 = private unnamed_addr constant [5 x i8] c"mpls\00", align 1
@proto_register_mpls.mpls_pfn_da = internal global %struct.decode_as_s { ptr @.str.42, ptr @.str.43, i32 1, i32 0, ptr @proto_register_mpls.mpls_pfn_da_values, ptr null, ptr null, ptr @decode_as_default_populate_list, ptr @decode_as_default_reset, ptr @decode_as_default_change, ptr null }, align 8
@.str.43 = private unnamed_addr constant [9 x i8] c"mpls.pfn\00", align 1
@proto_register_mpls.pw_ach_da = internal global %struct.decode_as_s { ptr @.str.44, ptr @.str.21, i32 1, i32 0, ptr @proto_register_mpls.pw_ach_da_values, ptr null, ptr null, ptr @decode_as_default_populate_list, ptr @decode_as_default_reset, ptr @decode_as_default_change, ptr null }, align 8
@.str.44 = private unnamed_addr constant [6 x i8] c"pwach\00", align 1
@.str.45 = private unnamed_addr constant [37 x i8] c"MultiProtocol Label Switching Header\00", align 1
@.str.46 = private unnamed_addr constant [5 x i8] c"MPLS\00", align 1
@proto_mpls = internal global i32 0, align 4
@PW_ACH = internal global [50 x i8] c"PW Associated Channel Header\00\00\00\00\00\00\00\00\00\00\00\00\00\00\00\00\00\00\00\00\00\00", align 16
@.str.47 = private unnamed_addr constant [22 x i8] c"PW Associated Channel\00", align 1
@proto_pw_ach = internal global i32 0, align 4
@.str.48 = private unnamed_addr constant [41 x i8] c"PW MPLS Control Word (generic/preferred)\00", align 1
@.str.49 = private unnamed_addr constant [21 x i8] c"Generic PW (with CW)\00", align 1
@.str.50 = private unnamed_addr constant [6 x i8] c"pwmcw\00", align 1
@proto_pw_mcw = internal global i32 0, align 4
@.str.51 = private unnamed_addr constant [39 x i8] c"Management Communication Channel (MCC)\00", align 1
@.str.52 = private unnamed_addr constant [47 x i8] c"PW Associated Management Communication Channel\00", align 1
@.str.53 = private unnamed_addr constant [4 x i8] c"mcc\00", align 1
@proto_pw_ach_mcc = internal global i32 0, align 4
@mpls_handle = internal global ptr null, align 8
@.str.54 = private unnamed_addr constant [8 x i8] c"mplsmcc\00", align 1
@mpls_mcc_handle = internal global ptr null, align 8
@.str.55 = private unnamed_addr constant [9 x i8] c"mplspwcw\00", align 1
@mpls_pwcw_handle = internal global ptr null, align 8
@.str.56 = private unnamed_addr constant [10 x i8] c"mplspwach\00", align 1
@.str.57 = private unnamed_addr constant [11 x i8] c"MPLS label\00", align 1
@mpls_subdissector_table = internal global ptr null, align 8
@.str.58 = private unnamed_addr constant [29 x i8] c"MPLS post-stack first nibble\00", align 1
@mpls_pfn_subdissector_table = internal global ptr null, align 8
@.str.59 = private unnamed_addr constant [13 x i8] c"MPLS payload\00", align 1
@mpls_heur_subdissector_list = internal global ptr null, align 8
@pw_ach_subdissector_table = internal global ptr null, align 8
@.str.60 = private unnamed_addr constant [56 x i8] c"PW Associated Management Communication Channel Protocol\00", align 1
@pw_ach_mcc_subdissector_table = internal global ptr null, align 8
@.str.61 = private unnamed_addr constant [17 x i8] c"mplspref.payload\00", align 1
@.str.62 = private unnamed_addr constant [20 x i8] c"try_heuristic_first\00", align 1
@.str.63 = private unnamed_addr constant [35 x i8] c"Try heuristic sub-dissectors first\00", align 1
@.str.64 = private unnamed_addr constant [135 x i8] c"Try to decode a packet heuristically, e.g. as Ethernet without control word, before trying sub-dissectors based upon the first nibble.\00", align 1
@mpls_try_heuristic_first = internal global i8 0, align 1
@.str.65 = private unnamed_addr constant [25 x i8] c"flowlabel_in_mpls_header\00", align 1
@.str.66 = private unnamed_addr constant [43 x i8] c"Assume bottom of stack label as Flow label\00", align 1
@.str.67 = private unnamed_addr constant [60 x i8] c"Lowest label is used to segregate flows inside a pseudowire\00", align 1
@mpls_bos_flowlabel = internal global i8 0, align 1

; Function Attrs: null_pointer_is_valid sspstrong uwtable
define hidden void @proto_register_mpls() #0 {
  %1 = alloca ptr, align 8
  %2 = alloca ptr, align 8
  call void @llvm.lifetime.start.p0(i64 8, ptr %1) #6
  call void @llvm.lifetime.start.p0(i64 8, ptr %2) #6
  %3 = call i32 @proto_register_protocol(ptr noundef @.str.45, ptr noundef @.str.46, ptr noundef @.str.42)
  store i32 %3, ptr @proto_mpls, align 4
  %4 = call i32 @proto_register_protocol(ptr noundef @PW_ACH, ptr noundef @.str.47, ptr noundef @.str.44)
  store i32 %4, ptr @proto_pw_ach, align 4
  %5 = call i32 @proto_register_protocol(ptr noundef @.str.48, ptr noundef @.str.49, ptr noundef @.str.50)
  store i32 %5, ptr @proto_pw_mcw, align 4
  %6 = call i32 @proto_register_protocol(ptr noundef @.str.51, ptr noundef @.str.52, ptr noundef @.str.53)
  store i32 %6, ptr @proto_pw_ach_mcc, align 4
  %7 = load i32, ptr @proto_mpls, align 4
  call void @proto_register_field_array(i32 noundef %7, ptr noundef @proto_register_mpls.mplsf_info, i32 noundef 12)
  call void @proto_register_subtree_array(ptr noundef @proto_register_mpls.ett, i32 noundef 4)
  %8 = load i32, ptr @proto_mpls, align 4
  %9 = call ptr @expert_register_protocol(i32 noundef %8)
  store ptr %9, ptr %1, align 8
  %10 = load ptr, ptr %1, align 8
  call void @expert_register_field_array(ptr noundef %10, ptr noundef @proto_register_mpls.ei, i32 noundef 4)
  %11 = load i32, ptr @proto_mpls, align 4
  %12 = call ptr @register_dissector(ptr noundef @.str.42, ptr noundef @dissect_mpls, i32 noundef %11)
  store ptr %12, ptr @mpls_handle, align 8
  %13 = load i32, ptr @proto_pw_ach_mcc, align 4
  %14 = call ptr @register_dissector(ptr noundef @.str.54, ptr noundef @dissect_pw_ach_mcc, i32 noundef %13)
  store ptr %14, ptr @mpls_mcc_handle, align 8
  %15 = load i32, ptr @proto_pw_mcw, align 4
  %16 = call ptr @register_dissector(ptr noundef @.str.55, ptr noundef @dissect_pw_mcw, i32 noundef %15)
  store ptr %16, ptr @mpls_pwcw_handle, align 8
  %17 = load i32, ptr @proto_pw_ach, align 4
  %18 = call ptr @register_dissector(ptr noundef @.str.56, ptr noundef @dissect_pw_ach, i32 noundef %17)
  store ptr %18, ptr @dissector_pw_ach, align 8
  %19 = load i32, ptr @proto_mpls, align 4
  %20 = call ptr @register_dissector_table(ptr noundef @.str.8, ptr noundef @.str.57, i32 noundef %19, i32 noundef 7, i32 noundef 1)
  store ptr %20, ptr @mpls_subdissector_table, align 8
  %21 = load i32, ptr @proto_mpls, align 4
  %22 = call ptr @register_dissector_table(ptr noundef @.str.43, ptr noundef @.str.58, i32 noundef %21, i32 noundef 4, i32 noundef 2)
  store ptr %22, ptr @mpls_pfn_subdissector_table, align 8
  %23 = load i32, ptr @proto_mpls, align 4
  %24 = call ptr @register_heur_dissector_list_with_description(ptr noundef @.str.42, ptr noundef @.str.59, i32 noundef %23)
  store ptr %24, ptr @mpls_heur_subdissector_list, align 8
  %25 = load i32, ptr @proto_pw_ach, align 4
  %26 = call ptr @register_dissector_table(ptr noundef @.str.21, ptr noundef @.str.22, i32 noundef %25, i32 noundef 5, i32 noundef 2)
  store ptr %26, ptr @pw_ach_subdissector_table, align 8
  %27 = load i32, ptr @proto_pw_ach_mcc, align 4
  %28 = call ptr @register_dissector_table(ptr noundef @.str.24, ptr noundef @.str.60, i32 noundef %27, i32 noundef 5, i32 noundef 2)
  store ptr %28, ptr @pw_ach_mcc_subdissector_table, align 8
  %29 = load i32, ptr @proto_mpls, align 4
  %30 = call ptr @prefs_register_protocol(i32 noundef %29, ptr noundef null)
  store ptr %30, ptr %2, align 8
  %31 = load ptr, ptr %2, align 8
  call void @prefs_register_obsolete_preference(ptr noundef %31, ptr noundef @.str.61)
  %32 = load ptr, ptr %2, align 8
  call void @prefs_register_bool_preference(ptr noundef %32, ptr noundef @.str.62, ptr noundef @.str.63, ptr noundef @.str.64, ptr noundef @mpls_try_heuristic_first)
  %33 = load ptr, ptr %2, align 8
  call void @prefs_register_bool_preference(ptr noundef %33, ptr noundef @.str.65, ptr noundef @.str.66, ptr noundef @.str.67, ptr noundef @mpls_bos_flowlabel)
  call void @register_decode_as(ptr noundef @proto_register_mpls.mpls_da)
  call void @register_decode_as(ptr noundef @proto_register_mpls.mpls_pfn_da)
  call void @register_decode_as(ptr noundef @proto_register_mpls.pw_ach_da)
  call void @llvm.lifetime.end.p0(i64 8, ptr %2) #6
  call void @llvm.lifetime.end.p0(i64 8, ptr %1) #6
  ret void
}