; Function Attrs: null_pointer_is_valid sspstrong uwtable
define hidden void @proto_register_mpls() local_unnamed_addr #0 {
  %1 = tail call i32 @proto_register_protocol(ptr noundef nonnull @.str.45, ptr noundef nonnull @.str.46, ptr noundef nonnull @.str.42)
  store i32 %1, ptr @proto_mpls, align 4
  %2 = tail call i32 @proto_register_protocol(ptr noundef nonnull @PW_ACH, ptr noundef nonnull @.str.47, ptr noundef nonnull @.str.44)
  store i32 %2, ptr @proto_pw_ach, align 4
  %3 = tail call i32 @proto_register_protocol(ptr noundef nonnull @.str.48, ptr noundef nonnull @.str.49, ptr noundef nonnull @.str.50)
  store i32 %3, ptr @proto_pw_mcw, align 4
  %4 = tail call i32 @proto_register_protocol(ptr noundef nonnull @.str.51, ptr noundef nonnull @.str.52, ptr noundef nonnull @.str.53)
  store i32 %4, ptr @proto_pw_ach_mcc, align 4
  %5 = load i32, ptr @proto_mpls, align 4
  tail call void @proto_register_field_array(i32 noundef %5, ptr noundef nonnull @proto_register_mpls.mplsf_info, i32 noundef 12)
  tail call void @proto_register_subtree_array(ptr noundef nonnull @proto_register_mpls.ett, i32 noundef 4)
  %6 = load i32, ptr @proto_mpls, align 4
  %7 = tail call ptr @expert_register_protocol(i32 noundef %6)
  tail call void @expert_register_field_array(ptr noundef %7, ptr noundef nonnull @proto_register_mpls.ei, i32 noundef 4)
  %8 = load i32, ptr @proto_mpls, align 4
  %9 = tail call ptr @register_dissector(ptr noundef nonnull @.str.42, ptr noundef nonnull @dissect_mpls, i32 noundef %8)
  store ptr %9, ptr @mpls_handle, align 8
  %10 = load i32, ptr @proto_pw_ach_mcc, align 4
  %11 = tail call ptr @register_dissector(ptr noundef nonnull @.str.54, ptr noundef nonnull @dissect_pw_ach_mcc, i32 noundef %10)
  store ptr %11, ptr @mpls_mcc_handle, align 8
  %12 = load i32, ptr @proto_pw_mcw, align 4
  %13 = tail call ptr @register_dissector(ptr noundef nonnull @.str.55, ptr noundef nonnull @dissect_pw_mcw, i32 noundef %12)
  store ptr %13, ptr @mpls_pwcw_handle, align 8
  %14 = load i32, ptr @proto_pw_ach, align 4
  %15 = tail call ptr @register_dissector(ptr noundef nonnull @.str.56, ptr noundef nonnull @dissect_pw_ach, i32 noundef %14)
  store ptr %15, ptr @dissector_pw_ach, align 8
  %16 = load i32, ptr @proto_mpls, align 4
  %17 = tail call ptr @register_dissector_table(ptr noundef nonnull @.str.8, ptr noundef nonnull @.str.57, i32 noundef %16, i32 noundef 7, i32 noundef 1)
  store ptr %17, ptr @mpls_subdissector_table, align 8
  %18 = load i32, ptr @proto_mpls, align 4
  %19 = tail call ptr @register_dissector_table(ptr noundef nonnull @.str.43, ptr noundef nonnull @.str.58, i32 noundef %18, i32 noundef 4, i32 noundef 2)
  store ptr %19, ptr @mpls_pfn_subdissector_table, align 8
  %20 = load i32, ptr @proto_mpls, align 4
  %21 = tail call ptr @register_heur_dissector_list_with_description(ptr noundef nonnull @.str.42, ptr noundef nonnull @.str.59, i32 noundef %20)
  store ptr %21, ptr @mpls_heur_subdissector_list, align 8
  %22 = load i32, ptr @proto_pw_ach, align 4
  %23 = tail call ptr @register_dissector_table(ptr noundef nonnull @.str.21, ptr noundef nonnull @.str.22, i32 noundef %22, i32 noundef 5, i32 noundef 2)
  store ptr %23, ptr @pw_ach_subdissector_table, align 8
  %24 = load i32, ptr @proto_pw_ach_mcc, align 4
  %25 = tail call ptr @register_dissector_table(ptr noundef nonnull @.str.24, ptr noundef nonnull @.str.60, i32 noundef %24, i32 noundef 5, i32 noundef 2)
  store ptr %25, ptr @pw_ach_mcc_subdissector_table, align 8
  %26 = load i32, ptr @proto_mpls, align 4
  %27 = tail call ptr @prefs_register_protocol(i32 noundef %26, ptr noundef null)
  tail call void @prefs_register_obsolete_preference(ptr noundef %27, ptr noundef nonnull @.str.61)
  tail call void @prefs_register_bool_preference(ptr noundef %27, ptr noundef nonnull @.str.62, ptr noundef nonnull @.str.63, ptr noundef nonnull @.str.64, ptr noundef nonnull @mpls_try_heuristic_first)
  tail call void @prefs_register_bool_preference(ptr noundef %27, ptr noundef nonnull @.str.65, ptr noundef nonnull @.str.66, ptr noundef nonnull @.str.67, ptr noundef nonnull @mpls_bos_flowlabel)
  tail call void @register_decode_as(ptr noundef nonnull @proto_register_mpls.mpls_da)
  tail call void @register_decode_as(ptr noundef nonnull @proto_register_mpls.mpls_pfn_da)
  tail call void @register_decode_as(ptr noundef nonnull @proto_register_mpls.pw_ach_da)
  ret void
}